target datalayout = "e-m:e-p270:32:32-p271:32:32-p272:64:64-i64:64-i128:128-f80:128-n8:16:32:64-S128"
target triple = "x86_64-pc-linux-gnu"

%struct.AVCodecContext = type { ptr, i32, i32, ptr, i32, i32, ptr, ptr, ptr, i64, i32, i32, ptr, i32, %struct.AVRational, %struct.AVRational, %struct.AVRational, i32, i32, i32, i32, i32, %struct.AVRational, i32, i32, i32, i32, i32, i32, i32, i32, i32, i32, i32, ptr, ptr, i32, float, float, float, float, float, float, float, float, float, i32, i32, i32, i32, i32, i32, i32, i32, i32, i32, i32, i32, ptr, ptr, ptr, i32, i32, i32, i32, i32, i32, i32, i32, i32, i32, %struct.AVChannelLayout, i32, i32, i32, i32, i32, i32, i32, i32, ptr, i32, i32, i32, float, float, i32, i32, i32, i32, i32, ptr, i64, i64, float, float, i32, i32, ptr, ptr, i32, i32, i32, i32, i32, ptr, ptr, ptr, ptr, i32, i32, [8 x i64], i32, i32, i32, i32, i32, i32, i32, ptr, ptr, i32, i32, i32, i32, i32, i32, i32, i32, i32, i32, ptr, ptr, i32, i32, ptr, ptr, ptr, ptr, i32, i32, i64, i32, i32, i64, ptr, i64, ptr, i32, ptr, i32 }
%struct.AVRational = type { i32, i32 }
%struct.AVChannelLayout = type { i32, i32, %union.anon, ptr }
%union.anon = type { i64 }
%struct.AVCodecInternal = type { i32, i32, i32, ptr, ptr, ptr, ptr, ptr, ptr, ptr, i32, ptr, ptr, ptr, i32, i32, ptr, i32, ptr, ptr, i32, i32 }
%struct.VAAPIDecodeContext = type { i32, i32, ptr, ptr, ptr, ptr, i32, i32, %struct._VASurfaceAttrib }
%struct._VASurfaceAttrib = type { i32, i32, %struct._VAGenericValue }
%struct._VAGenericValue = type { i32, %union.anon.0 }
%union.anon.0 = type { ptr }
%struct.AVVAAPIDeviceContext = type { ptr, i32 }

@.str.20 = private unnamed_addr constant [48 x i8] c"Failed to destroy decode context %#x: %d (%s).\0A\00", align 1
@.str.21 = private unnamed_addr constant [54 x i8] c"Failed to destroy decode configuration %#x: %d (%s).\0A\00", align 1

; Function Attrs: nounwind uwtable
define i32 @ff_vaapi_decode_uninit(ptr noundef %0) #0 {
  %2 = alloca ptr, align 8
  %3 = alloca ptr, align 8
  %4 = alloca i32, align 4
  store ptr %0, ptr %2, align 8, !tbaa !4
  call void @llvm.lifetime.start.p0(i64 8, ptr %3) #6
  %5 = load ptr, ptr %2, align 8, !tbaa !4
  %6 = getelementptr inbounds nuw %struct.AVCodecContext, ptr %5, i32 0, i32 7
  %7 = load ptr, ptr %6, align 8, !tbaa !16
  %8 = getelementptr inbounds nuw %struct.AVCodecInternal, ptr %7, i32 0, i32 16
  %9 = load ptr, ptr %8, align 8, !tbaa !34
  store ptr %9, ptr %3, align 8, !tbaa !41
  call void @llvm.lifetime.start.p0(i64 4, ptr %4) #6
  %10 = load ptr, ptr %3, align 8, !tbaa !41
  %11 = getelementptr inbounds nuw %struct.VAAPIDecodeContext, ptr %10, i32 0, i32 1
  %12 = load i32, ptr %11, align 4, !tbaa !58
  %13 = icmp ne i32 %12, -1
  br i1 %13, label %14, label %35

14:                                               ; preds = %1
  %15 = load ptr, ptr %3, align 8, !tbaa !41
  %16 = getelementptr inbounds nuw %struct.VAAPIDecodeContext, ptr %15, i32 0, i32 3
  %17 = load ptr, ptr %16, align 8, !tbaa !48
  %18 = getelementptr inbounds nuw %struct.AVVAAPIDeviceContext, ptr %17, i32 0, i32 0
  %19 = load ptr, ptr %18, align 8, !tbaa !56
  %20 = load ptr, ptr %3, align 8, !tbaa !41
  %21 = getelementptr inbounds nuw %struct.VAAPIDecodeContext, ptr %20, i32 0, i32 1
  %22 = load i32, ptr %21, align 4, !tbaa !58
  %23 = call i32 @vaDestroyContext(ptr noundef %19, i32 noundef %22)
  store i32 %23, ptr %4, align 4, !tbaa !11
  %24 = load i32, ptr %4, align 4, !tbaa !11
  %25 = icmp ne i32 %24, 0
  br i1 %25, label %26, label %34

26:                                               ; preds = %14
  %27 = load ptr, ptr %2, align 8, !tbaa !4
  %28 = load ptr, ptr %3, align 8, !tbaa !41
  %29 = getelementptr inbounds nuw %struct.VAAPIDecodeContext, ptr %28, i32 0, i32 1
  %30 = load i32, ptr %29, align 4, !tbaa !58
  %31 = load i32, ptr %4, align 4, !tbaa !11
  %32 = load i32, ptr %4, align 4, !tbaa !11
  %33 = call ptr @vaErrorStr(i32 noundef %32)
  call void (ptr, i32, ptr, ...) @av_log(ptr noundef %27, i32 noundef 16, ptr noundef @.str.20, i32 noundef %30, i32 noundef %31, ptr noundef %33)
  br label %34

34:                                               ; preds = %26, %14
  br label %35

35:                                               ; preds = %34, %1
  %36 = load ptr, ptr %3, align 8, !tbaa !41
  %37 = getelementptr inbounds nuw %struct.VAAPIDecodeContext, ptr %36, i32 0, i32 0
  %38 = load i32, ptr %37, align 8, !tbaa !113
  %39 = icmp ne i32 %38, -1
  br i1 %39, label %40, label %61

40:                                               ; preds = %35
  %41 = load ptr, ptr %3, align 8, !tbaa !41
  %42 = getelementptr inbounds nuw %struct.VAAPIDecodeContext, ptr %41, i32 0, i32 3
  %43 = load ptr, ptr %42, align 8, !tbaa !48
  %44 = getelementptr inbounds nuw %struct.AVVAAPIDeviceContext, ptr %43, i32 0, i32 0
  %45 = load ptr, ptr %44, align 8, !tbaa !56
  %46 = load ptr, ptr %3, align 8, !tbaa !41
  %47 = getelementptr inbounds nuw %struct.VAAPIDecodeContext, ptr %46, i32 0, i32 0
  %48 = load i32, ptr %47, align 8, !tbaa !113
  %49 = call i32 @vaDestroyConfig(ptr noundef %45, i32 noundef %48)
  store i32 %49, ptr %4, align 4, !tbaa !11
  %50 = load i32, ptr %4, align 4, !tbaa !11
  %51 = icmp ne i32 %50, 0
  br i1 %51, label %52, label %60

52:                                               ; preds = %40
  %53 = load ptr, ptr %2, align 8, !tbaa !4
  %54 = load ptr, ptr %3, align 8, !tbaa !41
  %55 = getelementptr inbounds nuw %struct.VAAPIDecodeContext, ptr %54, i32 0, i32 0
  %56 = load i32, ptr %55, align 8, !tbaa !113
  %57 = load i32, ptr %4, align 4, !tbaa !11
  %58 = load i32, ptr %4, align 4, !tbaa !11
  %59 = call ptr @vaErrorStr(i32 noundef %58)
  call void (ptr, i32, ptr, ...) @av_log(ptr noundef %53, i32 noundef 16, ptr noundef @.str.21, i32 noundef %56, i32 noundef %57, ptr noundef %59)
  br label %60

60:                                               ; preds = %52, %40
  br label %61

61:                                               ; preds = %60, %35
  call void @llvm.lifetime.end.p0(i64 4, ptr %4) #6
  call void @llvm.lifetime.end.p0(i64 8, ptr %3) #6
  ret i32 0
}