; Function Attrs: nounwind uwtable
define noundef i32 @ff_vaapi_decode_uninit(ptr noundef %0) local_unnamed_addr #0 {
  %2 = getelementptr inbounds nuw i8, ptr %0, i64 40
  %3 = load ptr, ptr %2, align 8, !tbaa !4
  %4 = getelementptr inbounds nuw i8, ptr %3, i64 112
  %5 = load ptr, ptr %4, align 8, !tbaa !27
  %6 = getelementptr inbounds nuw i8, ptr %5, i64 4
  %7 = load i32, ptr %6, align 4, !tbaa !48
  %.not = icmp eq i32 %7, -1
  br i1 %.not, label %16, label %8

8:                                                ; preds = %1
  %9 = getelementptr inbounds nuw i8, ptr %5, i64 16
  %10 = load ptr, ptr %9, align 8, !tbaa !38
  %11 = load ptr, ptr %10, align 8, !tbaa !46
  %12 = tail call i32 @vaDestroyContext(ptr noundef %11, i32 noundef %7) #4
  %.not19 = icmp eq i32 %12, 0
  br i1 %.not19, label %16, label %13

13:                                               ; preds = %8
  %14 = load i32, ptr %6, align 4, !tbaa !48
  %15 = tail call ptr @vaErrorStr(i32 noundef %12) #4
  tail call void (ptr, i32, ptr, ...) @av_log(ptr noundef nonnull %0, i32 noundef 16, ptr noundef nonnull @.str.20, i32 noundef %14, i32 noundef %12, ptr noundef %15) #4
  br label %16

16:                                               ; preds = %8, %13, %1
  %17 = load i32, ptr %5, align 8, !tbaa !100
  %.not20 = icmp eq i32 %17, -1
  br i1 %.not20, label %26, label %18

18:                                               ; preds = %16
  %19 = getelementptr inbounds nuw i8, ptr %5, i64 16
  %20 = load ptr, ptr %19, align 8, !tbaa !38
  %21 = load ptr, ptr %20, align 8, !tbaa !46
  %22 = tail call i32 @vaDestroyConfig(ptr noundef %21, i32 noundef %17) #4
  %.not21 = icmp eq i32 %22, 0
  br i1 %.not21, label %26, label %23

23:                                               ; preds = %18
  %24 = load i32, ptr %5, align 8, !tbaa !100
  %25 = tail call ptr @vaErrorStr(i32 noundef %22) #4
  tail call void (ptr, i32, ptr, ...) @av_log(ptr noundef nonnull %0, i32 noundef 16, ptr noundef nonnull @.str.21, i32 noundef %24, i32 noundef %22, ptr noundef %25) #4
  br label %26

26:                                               ; preds = %18, %23, %16
  ret i32 0
}